; Function Attrs: nounwind uwtable
define noalias nonnull ptr @l_ReaderT_pure___at_Lean_PrettyPrinter_instMonadQuotationUnexpandM___spec__2___rarg(ptr noundef %0, ptr noundef readnone captures(none) %1, ptr noundef %2) local_unnamed_addr #0 {
  tail call void @lean_inc_heartbeat() #11
  %4 = tail call noalias ptr @mi_malloc_small(i64 noundef 24) #11
  %5 = icmp eq ptr %4, null
  br i1 %5, label %6, label %lean_alloc_ctor.exit

6:                                                ; preds = %3
  tail call void @lean_internal_panic_out_of_memory() #12
  unreachable

lean_alloc_ctor.exit:                             ; preds = %3
  %7 = getelementptr inbounds nuw i8, ptr %4, i64 4
  store i32 1, ptr %4, align 4, !tbaa !4
  store i32 131096, ptr %7, align 4
  %8 = getelementptr inbounds nuw i8, ptr %4, i64 8
  store ptr %0, ptr %8, align 8, !tbaa !10
  %9 = getelementptr inbounds nuw i8, ptr %4, i64 16
  store ptr %2, ptr %9, align 8, !tbaa !10
  ret ptr %4
}